; Function Attrs: nounwind uwtable
define noalias noundef ptr @Abc_NtkNodeSupport(ptr noundef captures(none) %0, ptr noundef readonly captures(none) %1, i32 noundef %2) local_unnamed_addr #0 {
  %4 = getelementptr inbounds nuw i8, ptr %0, i64 232
  %5 = load ptr, ptr %4, align 8, !tbaa !43
  %.not.i = icmp eq ptr %5, null
  br i1 %.not.i, label %6, label %Abc_NtkIncrementTravId.exit

6:                                                ; preds = %3
  %7 = getelementptr inbounds nuw i8, ptr %0, i64 224
  %8 = getelementptr i8, ptr %0, i64 32
  %.val.i = load ptr, ptr %8, align 8, !tbaa !35
  %9 = getelementptr i8, ptr %.val.i, i64 4
  %.val.val.i = load i32, ptr %9, align 4, !tbaa !41
  %10 = add nsw i32 %.val.val.i, 500
  %11 = load i32, ptr %7, align 8, !tbaa !29
  %.not.i.i.i = icmp slt i32 %11, %10
  br i1 %.not.i.i.i, label %12, label %Vec_IntGrow.exit.i.i

12:                                               ; preds = %6
  %13 = sext i32 %10 to i64
  %14 = shl nsw i64 %13, 2
  %15 = tail call noalias ptr @malloc(i64 noundef %14) #22
  store ptr %15, ptr %4, align 8, !tbaa !30
  store i32 %10, ptr %7, align 8, !tbaa !29
  br label %Vec_IntGrow.exit.i.i

Vec_IntGrow.exit.i.i:                             ; preds = %12, %6
  %16 = phi ptr [ %15, %12 ], [ null, %6 ]
  %17 = icmp sgt i32 %.val.val.i, -500
  br i1 %17, label %.lr.ph.i.i, label %Vec_IntFill.exit.i

.lr.ph.i.i:                                       ; preds = %Vec_IntGrow.exit.i.i
  %18 = zext nneg i32 %10 to i64
  %19 = shl nuw nsw i64 %18, 2
  tail call void @llvm.memset.p0.i64(ptr align 4 %16, i8 0, i64 %19, i1 false), !tbaa !31
  br label %Vec_IntFill.exit.i

Vec_IntFill.exit.i:                               ; preds = %.lr.ph.i.i, %Vec_IntGrow.exit.i.i
  %20 = getelementptr inbounds nuw i8, ptr %0, i64 228
  store i32 %10, ptr %20, align 4, !tbaa !28
  br label %Abc_NtkIncrementTravId.exit

Abc_NtkIncrementTravId.exit:                      ; preds = %3, %Vec_IntFill.exit.i
  %21 = getelementptr inbounds nuw i8, ptr %0, i64 216
  %22 = load i32, ptr %21, align 8, !tbaa !14
  %23 = add nsw i32 %22, 1
  store i32 %23, ptr %21, align 8, !tbaa !14
  %24 = tail call noalias dereferenceable_or_null(16) ptr @malloc(i64 noundef 16) #22
  %25 = getelementptr inbounds nuw i8, ptr %24, i64 4
  store i32 0, ptr %25, align 4, !tbaa !41
  store i32 100, ptr %24, align 8, !tbaa !42
  %26 = tail call noalias dereferenceable_or_null(800) ptr @malloc(i64 noundef 800) #22
  %27 = getelementptr inbounds nuw i8, ptr %24, i64 8
  store ptr %26, ptr %27, align 8, !tbaa !36
  %28 = icmp sgt i32 %2, 0
  br i1 %28, label %.lr.ph.preheader, label %._crit_edge

.lr.ph.preheader:                                 ; preds = %Abc_NtkIncrementTravId.exit
  %wide.trip.count = zext nneg i32 %2 to i64
  br label %.lr.ph

.lr.ph:                                           ; preds = %.lr.ph.preheader, %44
  %indvars.iv = phi i64 [ 0, %.lr.ph.preheader ], [ %indvars.iv.next, %44 ]
  %29 = getelementptr inbounds nuw ptr, ptr %1, i64 %indvars.iv
  %30 = load ptr, ptr %29, align 8, !tbaa !52
  %31 = getelementptr i8, ptr %30, i64 20
  %.val27 = load i32, ptr %31, align 4
  %32 = and i32 %.val27, 15
  %33 = add nsw i32 %32, -5
  %narrow.i = icmp ult i32 %33, -2
  br i1 %narrow.i, label %42, label %34

34:                                               ; preds = %.lr.ph
  %.val24 = load ptr, ptr %30, align 8, !tbaa !3
  %35 = getelementptr i8, ptr %30, i64 32
  %.val25 = load ptr, ptr %35, align 8, !tbaa !34
  %36 = getelementptr i8, ptr %.val24, i64 32
  %.val24.val = load ptr, ptr %36, align 8, !tbaa !35
  %.val25.val = load i32, ptr %.val25, align 4, !tbaa !31
  %37 = getelementptr i8, ptr %.val24.val, i64 8
  %.val24.val.val = load ptr, ptr %37, align 8, !tbaa !36
  %38 = sext i32 %.val25.val to i64
  %39 = getelementptr inbounds ptr, ptr %.val24.val.val, i64 %38
  %40 = load ptr, ptr %39, align 8, !tbaa !38
  %41 = getelementptr i8, ptr %40, i64 28
  %.val21 = load i32, ptr %41, align 4, !tbaa !33
  %.not18 = icmp eq i32 %.val21, 0
  br i1 %.not18, label %44, label %.sink.split

42:                                               ; preds = %.lr.ph
  %43 = getelementptr i8, ptr %30, i64 28
  %.val = load i32, ptr %43, align 4, !tbaa !33
  %.not20 = icmp eq i32 %.val, 0
  br i1 %.not20, label %44, label %.sink.split

.sink.split:                                      ; preds = %42, %34
  %.sink = phi ptr [ %40, %34 ], [ %30, %42 ]
  tail call void @Abc_NtkNodeSupport_rec(ptr noundef nonnull %.sink, ptr noundef nonnull %24)
  br label %44

44:                                               ; preds = %.sink.split, %34, %42
  %indvars.iv.next = add nuw nsw i64 %indvars.iv, 1
  %exitcond.not = icmp eq i64 %indvars.iv.next, %wide.trip.count
  br i1 %exitcond.not, label %._crit_edge, label %.lr.ph, !llvm.loop !106

._crit_edge:                                      ; preds = %44, %Abc_NtkIncrementTravId.exit
  ret ptr %24
}